-----BEGIN CERTIFICATE-----
MIIGGTCCBAGgAwIBAgIQD2u3Ue+n0ug2jmBkBzNPgzANBgkqhkiG9w0BAQwFADCB
iDELMAkGA1UEBhMCVVMxEzARBgNVBAgTCk5ldyBKZXJzZXkxFDASBgNVBAcTC0pl
cnNleSBDaXR5MR4wHAYDVQQKExVUaGUgVVNFUlRSVVNUIE5ldHdvcmsxLjAsBgNV
BAMTJVVTRVJUcnVzdCBSU0EgQ2VydGlmaWNhdGlvbiBBdXRob3JpdHkwHhcNMTIw
MjEyMDAwMDAwWhcNMjcwMjExMjM1OTU5WjCBlTELMAkGA1UEBhMCVVMxEzARBgNV
BAgTCk5ldyBKZXJzZXkxFDASBgNVBAcTC0plcnNleSBDaXR5MR4wHAYDVQQKExVU
aGUgVVNFUlRSVVNUIE5ldHdvcmsxOzA5BgNVBAMTMlVTRVJUcnVzdCBSU0EgRXh0
ZW5kZWQgVmFsaWRhdGlvbiBTZWN1cmUgU2VydmVyIENBMIIBIjANBgkqhkiG9w0B
AQEFAAOCAQ8AMIIBCgKCAQEAlJwjjGNzAgMFwLu05RnhYFJS1PpbcyPH6VZOij+z
PyvCILGvwXC8A+EgBthY080+kIlSxrNyOdnrUfNj8IsBtBlmtOF9nMWgD0Cb4HB1
Y/tCNas8IHMtKr6eI4nJa4NjPhTcST+GtC8r+bVGHk0QpX4LbT+Z8WeE7pXIOUGs
9j66/hsMwgnBxkQ9xXN0jhTFITUZfnCuM0vOo5hRYlCNtwD8iaHJPaKxYe6qHSKH
WCBK7GUQiQRngry+YKLx3YtC3k/NQIyhaTLY/gUFi57kPcpZoa0h3RGfS9MpPFoe
mk3rGH3jwjVFxR1ep1FtP/kprzLaR1UL81gxENhWvZEWXQIDAQABo4IBbjCCAWow
HwYDVR0jBBgwFoAUU3m/WqorSs9UgOHYm8Cd8rIDZsswHQYDVR0OBBYEFC+BT+Jm
+rxov5lDhFKJIDqC86SlMA4GA1UdDwEB/wQEAwIBBjASBgNVHRMBAf8ECDAGAQH/
AgEAMDoGA1UdIAQzMDEwLwYEVR0gADAnMCUGCCsGAQUFBwIBFhlodHRwczovL2Nw
cy51c2VydHJ1c3QuY29tMFAGA1UdHwRJMEcwRaBDoEGGP2h0dHA6Ly9jcmwudXNl
cnRydXN0LmNvbS9VU0VSVHJ1c3RSU0FDZXJ0aWZpY2F0aW9uQXV0aG9yaXR5LmNy
bDB2BggrBgEFBQcBAQRqMGgwPwYIKwYBBQUHMAKGM2h0dHA6Ly9jcnQudXNlcnRy
dXN0LmNvbS9VU0VSVHJ1c3RSU0FBZGRUcnVzdENBLmNydDAlBggrBgEFBQcwAYYZ
aHR0cDovL29jc3AudXNlcnRydXN0LmNvbTANBgkqhkiG9w0BAQwFAAOCAgEAa2bX
Xf22zjY/QLzzdZwJ9JO86qH/czwCFPK4o9Cb7rixQL9S7zHw1dm3n/+Lx5kT9lqx
wB0dqoZ8o0XwFgVcksGz7QRhEBjrB0nSUNYG8kuFaMxRWa9ze6Ovov44WDrq1uyF
npi3eeQiwMr3xHmY76b1NX0WqvlTTFw4L5DrcIohBz1zKVkRp7LH/s5vxjDECM+/
erdy1WTILNFv09gwz4iFyfu/WmYYNUKlQJaSoUqja/KHcqY8zYKKjq5o982Ji3Ti
/Odkx1NJA1Yf5ivDxxRFQmij6knL1pi1wgQxGjd67V3/+HfHF7MCRWk8mXnT32B9
1Hk3jm10GL0R6y/XFsLhv0mGkmKD1vTP7vz1hdMLlVgxEs1k5dLMybtjUJ3LuENz
avmZ/G/vOi284ZRo/gA/YjT5CeeWgI11IHbpRDAqKy4BWhmtIi11u12i9ftPxxrD
/VwHtC0hTTOBnYgbJAK9ZLvaJUBU22EimU4Jv3ELkeV7SWedbAdfjXolI1mCcAbq
RgzRC+RaTloSmO2dWicDBW7KlRHmKZXrkDUAExSBY/1j9HmNcYzWv4NCTtK7t0en
gsE/OP2b7zHrHWtC/F1JwOCrH1JkbPA7c/6nNJVY2AscGM16pIU89OL0Ez1PyZYG
4fokbdNREXoShKClNIPbB5iY+WdSzb9CKLyb96g=
-----END CERTIFICATE-----
Certificate:
    Data:
        Version: 3 (0x2)
        Serial Number:
            0f:6b:b7:51:ef:a7:d2:e8:36:8e:60:64:07:33:4f:83
        Signature Algorithm: sha384WithRSAEncryption
        Issuer: C=US, ST=New Jersey, L=Jersey City, O=The USERTRUST Network, CN=USERTrust RSA Certification Authority
        Validity
            Not Before: Feb 12 00:00:00 2012 GMT
            Not After : Feb 11 23:59:59 2027 GMT
        Subject: C=US, ST=New Jersey, L=Jersey City, O=The USERTRUST Network, CN=USERTrust RSA Extended Validation Secure Server CA
        Subject Public Key Info:
            Public Key Algorithm: rsaEncryption
            RSA Public Key: (2048 bit)
                Modulus (2048 bit):
                    00:94:9c:23:8c:63:73:02:03:05:c0:bb:b4:e5:19:
                    e1:60:52:52:d4:fa:5b:73:23:c7:e9:56:4e:8a:3f:
                    b3:3f:2b:c2:20:b1:af:c1:70:bc:03:e1:20:06:d8:
                    58:d3:cd:3e:90:89:52:c6:b3:72:39:d9:eb:51:f3:
                    63:f0:8b:01:b4:19:66:b4:e1:7d:9c:c5:a0:0f:40:
                    9b:e0:70:75:63:fb:42:35:ab:3c:20:73:2d:2a:be:
                    9e:23:89:c9:6b:83:63:3e:14:dc:49:3f:86:b4:2f:
                    2b:f9:b5:46:1e:4d:10:a5:7e:0b:6d:3f:99:f1:67:
                    84:ee:95:c8:39:41:ac:f6:3e:ba:fe:1b:0c:c2:09:
                    c1:c6:44:3d:c5:73:74:8e:14:c5:21:35:19:7e:70:
                    ae:33:4b:ce:a3:98:51:62:50:8d:b7:00:fc:89:a1:
                    c9:3d:a2:b1:61:ee:aa:1d:22:87:58:20:4a:ec:65:
                    10:89:04:67:82:bc:be:60:a2:f1:dd:8b:42:de:4f:
                    cd:40:8c:a1:69:32:d8:fe:05:05:8b:9e:e4:3d:ca:
                    59:a1:ad:21:dd:11:9f:4b:d3:29:3c:5a:1e:9a:4d:
                    eb:18:7d:e3:c2:35:45:c5:1d:5e:a7:51:6d:3f:f9:
                    29:af:32:da:47:55:0b:f3:58:31:10:d8:56:bd:91:
                    16:5d
                Exponent: 65537 (0x10001)
        X509v3 extensions:
            X509v3 Authority Key Identifier: 
                keyid:53:79:BF:5A:AA:2B:4A:CF:54:80:E1:D8:9B:C0:9D:F2:B2:03:66:CB

            X509v3 Subject Key Identifier: 
                2F:81:4F:E2:66:FA:BC:68:BF:99:43:84:52:89:20:3A:82:F3:A4:A5
            X509v3 Key Usage: critical
                Certificate Sign, CRL Sign
            X509v3 Basic Constraints: critical
                CA:TRUE, pathlen:0
            X509v3 Certificate Policies: 
                Policy: X509v3 Any Policy
                  CPS: https://cps.usertrust.com

            X509v3 CRL Distribution Points: 
                URI:http://crl.usertrust.com/USERTrustRSACertificationAuthority.crl

            Authority Information Access: 
                CA Issuers - URI:http://crt.usertrust.com/USERTrustRSAAddTrustCA.crt
                OCSP - URI:http://ocsp.usertrust.com

    Signature Algorithm: sha384WithRSAEncryption
        6b:66:d7:5d:fd:b6:ce:36:3f:40:bc:f3:75:9c:09:f4:93:bc:
        ea:a1:ff:73:3c:02:14:f2:b8:a3:d0:9b:ee:b8:b1:40:bf:52:
        ef:31:f0:d5:d9:b7:9f:ff:8b:c7:99:13:f6:5a:b1:c0:1d:1d:
        aa:86:7c:a3:45:f0:16:05:5c:92:c1:b3:ed:04:61:10:18:eb:
        07:49:d2:50:d6:06:f2:4b:85:68:cc:51:59:af:73:7b:a3:af:
        a2:fe:38:58:3a:ea:d6:ec:85:9e:98:b7:79:e4:22:c0:ca:f7:
        c4:79:98:ef:a6:f5:35:7d:16:aa:f9:53:4c:5c:38:2f:90:eb:
        70:8a:21:07:3d:73:29:59:11:a7:b2:c7:fe:ce:6f:c6:30:c4:
        08:cf:bf:7a:b7:72:d5:64:c8:2c:d1:6f:d3:d8:30:cf:88:85:
        c9:fb:bf:5a:66:18:35:42:a5:40:96:92:a1:4a:a3:6b:f2:87:
        72:a6:3c:cd:82:8a:8e:ae:68:f7:cd:89:8b:74:e2:fc:e7:64:
        c7:53:49:03:56:1f:e6:2b:c3:c7:14:45:42:68:a3:ea:49:cb:
        d6:98:b5:c2:04:31:1a:37:7a:ed:5d:ff:f8:77:c7:17:b3:02:
        45:69:3c:99:79:d3:df:60:7d:d4:79:37:8e:6d:74:18:bd:11:
        eb:2f:d7:16:c2:e1:bf:49:86:92:62:83:d6:f4:cf:ee:fc:f5:
        85:d3:0b:95:58:31:12:cd:64:e5:d2:cc:c9:bb:63:50:9d:cb:
        b8:43:73:6a:f9:99:fc:6f:ef:3a:2d:bc:e1:94:68:fe:00:3f:
        62:34:f9:09:e7:96:80:8d:75:20:76:e9:44:30:2a:2b:2e:01:
        5a:19:ad:22:2d:75:bb:5d:a2:f5:fb:4f:c7:1a:c3:fd:5c:07:
        b4:2d:21:4d:33:81:9d:88:1b:24:02:bd:64:bb:da:25:40:54:
        db:61:22:99:4e:09:bf:71:0b:91:e5:7b:49:67:9d:6c:07:5f:
        8d:7a:25:23:59:82:70:06:ea:46:0c:d1:0b:e4:5a:4e:5a:12:
        98:ed:9d:5a:27:03:05:6e:ca:95:11:e6:29:95:eb:90:35:00:
        13:14:81:63:fd:63:f4:79:8d:71:8c:d6:bf:83:42:4e:d2:bb:
        b7:47:a7:82:c1:3f:38:fd:9b:ef:31:eb:1d:6b:42:fc:5d:49:
        c0:e0:ab:1f:52:64:6c:f0:3b:73:fe:a7:34:95:58:d8:0b:1c:
        18:cd:7a:a4:85:3c:f4:e2:f4:13:3d:4f:c9:96:06:e1:fa:24:
        6d:d3:51:11:7a:12:84:a0:a5:34:83:db:07:98:98:f9:67:52:
        cd:bf:42:28:bc:9b:f7:a8
SHA1 Fingerprint=AF:66:86:74:9E:64:9F:B7:8A:37:8C:F5:31:93:33:53:A8:4D:38:DE
